; Function Attrs: mustprogress uwtable
define hidden void @_ZN3p2t5Sweep22FillLeftBelowEdgeEventERNS_12SweepContextEPNS_4EdgeERNS_4NodeE(ptr noundef nonnull align 8 dereferenceable(24) %0, ptr noundef nonnull align 8 dereferenceable(200) %1, ptr noundef readonly captures(none) %2, ptr noundef nonnull readonly align 8 captures(none) dereferenceable(40) %3) local_unnamed_addr #2 align 2 {
  %5 = load ptr, ptr %3, align 8
  %6 = load double, ptr %5, align 8
  %7 = load ptr, ptr %2, align 8
  %8 = load double, ptr %7, align 8
  %9 = fcmp ogt double %6, %8
  br i1 %9, label %.lr.ph, label %_ZN3p2t5Sweep24FillLeftConcaveEdgeEventERNS_12SweepContextEPNS_4EdgeERNS_4NodeE.exit

.lr.ph:                                           ; preds = %4
  %10 = getelementptr inbounds nuw i8, ptr %3, i64 24
  br label %11

11:                                               ; preds = %.lr.ph, %tailrecurse
  %12 = phi double [ %6, %.lr.ph ], [ %80, %tailrecurse ]
  %13 = phi ptr [ %5, %.lr.ph ], [ %79, %tailrecurse ]
  %14 = load ptr, ptr %10, align 8
  %15 = load ptr, ptr %14, align 8
  %16 = getelementptr inbounds nuw i8, ptr %14, i64 24
  %17 = load ptr, ptr %16, align 8
  %18 = load ptr, ptr %17, align 8
  %19 = load double, ptr %18, align 8
  %20 = fsub double %12, %19
  %21 = getelementptr inbounds nuw i8, ptr %15, i64 8
  %22 = load double, ptr %21, align 8
  %23 = getelementptr inbounds nuw i8, ptr %18, i64 8
  %24 = load double, ptr %23, align 8
  %25 = fsub double %22, %24
  %26 = fmul double %20, %25
  %27 = getelementptr inbounds nuw i8, ptr %13, i64 8
  %28 = load double, ptr %27, align 8
  %29 = fsub double %28, %24
  %30 = load double, ptr %15, align 8
  %31 = fsub double %30, %19
  %32 = fmul double %29, %31
  %33 = fsub double %26, %32
  %34 = fcmp ult double %33, 0.000000e+00
  br i1 %34, label %35, label %tailrecurse

35:                                               ; preds = %11
  %36 = getelementptr inbounds nuw i8, ptr %2, i64 8
  br label %tailrecurse.i

tailrecurse.i:                                    ; preds = %60, %35
  %37 = phi ptr [ %38, %60 ], [ %14, %35 ]
  tail call void @_ZN3p2t5Sweep4FillERNS_12SweepContextERNS_4NodeE(ptr noundef nonnull align 8 dereferenceable(24) %0, ptr noundef nonnull align 8 dereferenceable(200) %1, ptr noundef nonnull align 8 dereferenceable(40) %37)
  %38 = load ptr, ptr %10, align 8
  %39 = load ptr, ptr %38, align 8
  %40 = load ptr, ptr %2, align 8
  %.not.i = icmp eq ptr %39, %40
  br i1 %.not.i, label %_ZN3p2t5Sweep24FillLeftConcaveEdgeEventERNS_12SweepContextEPNS_4EdgeERNS_4NodeE.exit, label %41

41:                                               ; preds = %tailrecurse.i
  %42 = load ptr, ptr %36, align 8
  %43 = load double, ptr %42, align 8
  %44 = load double, ptr %40, align 8
  %45 = fsub double %43, %44
  %46 = getelementptr inbounds nuw i8, ptr %39, i64 8
  %47 = load double, ptr %46, align 8
  %48 = getelementptr inbounds nuw i8, ptr %40, i64 8
  %49 = load double, ptr %48, align 8
  %50 = fsub double %47, %49
  %51 = fmul double %45, %50
  %52 = getelementptr inbounds nuw i8, ptr %42, i64 8
  %53 = load double, ptr %52, align 8
  %54 = fsub double %53, %49
  %55 = load double, ptr %39, align 8
  %56 = fsub double %55, %44
  %57 = fmul double %54, %56
  %58 = fsub double %51, %57
  %59 = fcmp ult double %58, 0.000000e+00
  br i1 %59, label %60, label %_ZN3p2t5Sweep24FillLeftConcaveEdgeEventERNS_12SweepContextEPNS_4EdgeERNS_4NodeE.exit

60:                                               ; preds = %41
  %61 = load ptr, ptr %3, align 8
  %62 = getelementptr inbounds nuw i8, ptr %38, i64 24
  %63 = load ptr, ptr %62, align 8
  %64 = load ptr, ptr %63, align 8
  %65 = load double, ptr %61, align 8
  %66 = load double, ptr %64, align 8
  %67 = fsub double %65, %66
  %68 = getelementptr inbounds nuw i8, ptr %64, i64 8
  %69 = load double, ptr %68, align 8
  %70 = fsub double %47, %69
  %71 = fmul double %67, %70
  %72 = getelementptr inbounds nuw i8, ptr %61, i64 8
  %73 = load double, ptr %72, align 8
  %74 = fsub double %73, %69
  %75 = fsub double %55, %66
  %76 = fmul double %75, %74
  %77 = fsub double %71, %76
  %78 = fcmp ult double %77, 0.000000e+00
  br i1 %78, label %tailrecurse.i, label %_ZN3p2t5Sweep24FillLeftConcaveEdgeEventERNS_12SweepContextEPNS_4EdgeERNS_4NodeE.exit

tailrecurse:                                      ; preds = %11
  tail call void @_ZN3p2t5Sweep23FillLeftConvexEdgeEventERNS_12SweepContextEPNS_4EdgeERNS_4NodeE(ptr noundef nonnull align 8 dereferenceable(24) %0, ptr noundef nonnull align 8 dereferenceable(200) %1, ptr noundef nonnull %2, ptr noundef nonnull align 8 dereferenceable(40) %3)
  %79 = load ptr, ptr %3, align 8
  %80 = load double, ptr %79, align 8
  %81 = load ptr, ptr %2, align 8
  %82 = load double, ptr %81, align 8
  %83 = fcmp ogt double %80, %82
  br i1 %83, label %11, label %_ZN3p2t5Sweep24FillLeftConcaveEdgeEventERNS_12SweepContextEPNS_4EdgeERNS_4NodeE.exit

_ZN3p2t5Sweep24FillLeftConcaveEdgeEventERNS_12SweepContextEPNS_4EdgeERNS_4NodeE.exit: ; preds = %tailrecurse, %60, %41, %tailrecurse.i, %4
  ret void
}